target datalayout = "e-m:e-p270:32:32-p271:32:32-p272:64:64-i64:64-i128:128-f80:128-n8:16:32:64-S128"
target triple = "x86_64-pc-linux-gnu"

%struct.lookup_dir_st = type { ptr, ptr, ptr }
%struct.x509_lookup_st = type { i32, i32, ptr, ptr, ptr }

@.str.1 = private unnamed_addr constant [32 x i8] c"../openssl/crypto/x509/by_dir.c\00", align 1

; Function Attrs: inlinehint nounwind uwtable
define internal void @sk_BY_DIR_ENTRY_pop_free(ptr noundef %0, ptr noundef %1) #3 {
  %3 = alloca ptr, align 8
  %4 = alloca ptr, align 8
  store ptr %0, ptr %3, align 8, !tbaa !64
  store ptr %1, ptr %4, align 8, !tbaa !65
  %5 = load ptr, ptr %3, align 8, !tbaa !64
  %6 = load ptr, ptr %4, align 8, !tbaa !65
  call void @OPENSSL_sk_pop_free(ptr noundef %5, ptr noundef %6)
  ret void
}

; Function Attrs: nounwind uwtable
define internal void @free_dir(ptr noundef %0) #0 {
  %2 = alloca ptr, align 8
  %3 = alloca ptr, align 8
  store ptr %0, ptr %2, align 8, !tbaa !3
  call void @llvm.lifetime.start.p0(i64 8, ptr %3) #7
  %4 = load ptr, ptr %2, align 8, !tbaa !3
  %5 = getelementptr inbounds nuw %struct.x509_lookup_st, ptr %4, i32 0, i32 3
  %6 = load ptr, ptr %5, align 8, !tbaa !16
  store ptr %6, ptr %3, align 8, !tbaa !8
  %7 = load ptr, ptr %3, align 8, !tbaa !8
  %8 = getelementptr inbounds nuw %struct.lookup_dir_st, ptr %7, i32 0, i32 1
  %9 = load ptr, ptr %8, align 8, !tbaa !14
  call void @sk_BY_DIR_ENTRY_pop_free(ptr noundef %9, ptr noundef @by_dir_entry_free)
  %10 = load ptr, ptr %3, align 8, !tbaa !8
  %11 = getelementptr inbounds nuw %struct.lookup_dir_st, ptr %10, i32 0, i32 0
  %12 = load ptr, ptr %11, align 8, !tbaa !10
  call void @BUF_MEM_free(ptr noundef %12)
  %13 = load ptr, ptr %3, align 8, !tbaa !8
  %14 = getelementptr inbounds nuw %struct.lookup_dir_st, ptr %13, i32 0, i32 2
  %15 = load ptr, ptr %14, align 8, !tbaa !15
  call void @CRYPTO_THREAD_lock_free(ptr noundef %15)
  %16 = load ptr, ptr %3, align 8, !tbaa !8
  call void @CRYPTO_free(ptr noundef %16, ptr noundef @.str.1, i32 noundef 163)
  call void @llvm.lifetime.end.p0(i64 8, ptr %3) #7
  ret void
}