; Function Attrs: nounwind uwtable
define internal void @free_dir(ptr noundef readonly captures(none) %0) #1 {
  %2 = getelementptr inbounds nuw i8, ptr %0, i64 16
  %3 = load ptr, ptr %2, align 8, !tbaa !12
  %4 = getelementptr inbounds nuw i8, ptr %3, i64 8
  %5 = load ptr, ptr %4, align 8, !tbaa !10
  tail call void @OPENSSL_sk_pop_free(ptr noundef %5, ptr noundef nonnull @by_dir_entry_free) #8
  %6 = load ptr, ptr %3, align 8, !tbaa !3
  tail call void @BUF_MEM_free(ptr noundef %6) #8
  %7 = getelementptr inbounds nuw i8, ptr %3, i64 16
  %8 = load ptr, ptr %7, align 8, !tbaa !11
  tail call void @CRYPTO_THREAD_lock_free(ptr noundef %8) #8
  tail call void @CRYPTO_free(ptr noundef nonnull %3, ptr noundef nonnull @.str.1, i32 noundef 163) #8
  ret void
}